; Function Attrs: mustprogress nofree norecurse nosync nounwind willreturn memory(read, argmem: readwrite, inaccessiblemem: none) uwtable
define hidden void @_ZN5State18_sub_Op_GetAndSetLEPK4Node(ptr nocapture noundef nonnull align 8 dereferenceable(1920) %0, ptr nocapture readnone %1) local_unnamed_addr #1 align 2 {
  %3 = getelementptr inbounds i8, ptr %0, i64 1904
  %4 = load ptr, ptr %3, align 8
  %.not = icmp eq ptr %4, null
  br i1 %.not, label %36, label %5

5:                                                ; preds = %2
  %6 = getelementptr inbounds i8, ptr %4, i64 1514
  %7 = load i16, ptr %6, align 2
  %8 = and i16 %7, 1
  %.not9 = icmp eq i16 %8, 0
  br i1 %.not9, label %36, label %9

9:                                                ; preds = %5
  %10 = getelementptr inbounds i8, ptr %0, i64 1912
  %11 = load ptr, ptr %10, align 8
  %.not10 = icmp eq ptr %11, null
  br i1 %.not10, label %36, label %12

12:                                               ; preds = %9
  %13 = getelementptr inbounds i8, ptr %11, i64 1396
  %14 = load i16, ptr %13, align 4
  %15 = and i16 %14, 1
  %.not11 = icmp eq i16 %15, 0
  br i1 %.not11, label %36, label %16

16:                                               ; preds = %12
  %17 = getelementptr inbounds i8, ptr %4, i64 508
  %18 = load i32, ptr %17, align 4
  %19 = getelementptr inbounds i8, ptr %11, i64 272
  %20 = load i32, ptr %19, align 8
  %21 = add i32 %20, %18
  %22 = add i32 %21, 100
  %23 = getelementptr inbounds i8, ptr %0, i64 272
  %24 = getelementptr inbounds i8, ptr %0, i64 1396
  %25 = add i32 %21, 200
  %26 = getelementptr inbounds i8, ptr %0, i64 432
  store i32 %25, ptr %26, align 8
  %27 = getelementptr inbounds i8, ptr %0, i64 1476
  store i16 633, ptr %27, align 4
  %28 = getelementptr inbounds i8, ptr %0, i64 296
  store i32 %22, ptr %28, align 8
  %29 = getelementptr inbounds i8, ptr %0, i64 1408
  store i16 1549, ptr %29, align 8
  %30 = insertelement <4 x i32> poison, i32 %22, i64 0
  %31 = shufflevector <4 x i32> %30, <4 x i32> poison, <4 x i32> zeroinitializer
  store <4 x i32> %31, ptr %23, align 8
  store <4 x i16> <i16 1549, i16 1549, i16 1549, i16 1549>, ptr %24, align 4
  %32 = getelementptr inbounds i8, ptr %0, i64 288
  store i32 %22, ptr %32, align 8
  %33 = getelementptr inbounds i8, ptr %0, i64 1404
  store i16 1549, ptr %33, align 4
  %34 = getelementptr inbounds i8, ptr %0, i64 292
  store i32 %22, ptr %34, align 4
  %35 = getelementptr inbounds i8, ptr %0, i64 1406
  store i16 1549, ptr %35, align 2
  br label %36

36:                                               ; preds = %16, %12, %9, %5, %2
  ret void
}